; Function Attrs: mustprogress uwtable
define hidden noundef ptr @_ZNK8seq_util3str7mk_charEj(ptr noundef nonnull readonly align 8 captures(none) dereferenceable(20) %0, i32 noundef %1) local_unnamed_addr #3 align 2 {
  %3 = load ptr, ptr %0, align 8, !tbaa !214
  %4 = getelementptr inbounds nuw i8, ptr %3, i64 8
  %5 = load ptr, ptr %4, align 8, !tbaa !215
  %6 = getelementptr inbounds nuw i8, ptr %5, i64 88
  %7 = load ptr, ptr %6, align 8, !tbaa !13
  %8 = tail call noundef ptr @_ZN16char_decl_plugin7mk_charEj(ptr noundef nonnull align 8 dereferenceable(40) %7, i32 noundef %1)
  ret ptr %8
}